(dp0
S'username'
p1
S'jham@rhapsody.com'
p2
sS'first_name'
p3
VJerimiah
p4
sS'password'
p5
S'JHVzdDkqcnU='
p6
sS'access_token'
p7
V3ytFAQfHh8alCOnFsjOzok303qeZ
p8
sS'timestamp'
p9
F1381570330.564373
sS'expires_in'
p10
V86399
p11
sS'catalog'
p12
VUS
p13
sS'last_name'
p14
VHam
p15
sS'issued_at'
p16
V3ytFAQfHh8alCOnFsjOzok303qeZ
p17
sS'guid'
p18
VB80B0095F8C7034CE0430A960332034C
p19
sS'refresh_token'
p20
VABc9esa8sLX4LhInRaKslzrpdoyBTJoV
p21
s.